target datalayout = "e-m:e-p270:32:32-p271:32:32-p272:64:64-i64:64-i128:128-f80:128-n8:16:32:64-S128"
target triple = "x86_64-pc-linux-gnu"

%struct.prov_aes_wrap_ctx_st = type { %struct.prov_cipher_ctx_st, %union.anon.0, ptr }
%struct.prov_cipher_ctx_st = type { [16 x i8], [16 x i8], [16 x i8], ptr, %union.anon, i32, i64, i64, i64, i64, i32, i8, i32, ptr, i32, i64, i32, i64, i32, ptr, ptr, ptr }
%union.anon = type { ptr }
%union.anon.0 = type { double, [240 x i8] }
%struct.ossl_param_st = type { ptr, i32, ptr, i64, i64 }

@.str = private unnamed_addr constant [62 x i8] c"../openssl/providers/implementations/ciphers/cipher_aes_wrp.c\00", align 1
@__func__.aes_wrap_init = private unnamed_addr constant [14 x i8] c"aes_wrap_init\00", align 1
@.str.1 = private unnamed_addr constant [7 x i8] c"keylen\00", align 1
@__func__.aes_wrap_set_ctx_params = private unnamed_addr constant [24 x i8] c"aes_wrap_set_ctx_params\00", align 1

; Function Attrs: inlinehint nounwind uwtable
define internal i32 @ossl_param_is_empty(ptr noundef %0) #3 {
  %2 = alloca ptr, align 8
  store ptr %0, ptr %2, align 8, !tbaa !11
  %3 = load ptr, ptr %2, align 8, !tbaa !11
  %4 = icmp eq ptr %3, null
  br i1 %4, label %10, label %5

5:                                                ; preds = %1
  %6 = load ptr, ptr %2, align 8, !tbaa !11
  %7 = getelementptr inbounds nuw %struct.ossl_param_st, ptr %6, i32 0, i32 0
  %8 = load ptr, ptr %7, align 8, !tbaa !32
  %9 = icmp eq ptr %8, null
  br label %10

10:                                               ; preds = %5, %1
  %11 = phi i1 [ true, %1 ], [ %9, %5 ]
  %12 = zext i1 %11 to i32
  ret i32 %12
}

; Function Attrs: nounwind uwtable
define internal i32 @aes_wrap_set_ctx_params(ptr noundef %0, ptr noundef %1) #0 {
  %3 = alloca i32, align 4
  %4 = alloca ptr, align 8
  %5 = alloca ptr, align 8
  %6 = alloca ptr, align 8
  %7 = alloca ptr, align 8
  %8 = alloca i64, align 8
  %9 = alloca i32, align 4
  store ptr %0, ptr %4, align 8, !tbaa !3
  store ptr %1, ptr %5, align 8, !tbaa !11
  call void @llvm.lifetime.start.p0(i64 8, ptr %6) #4
  %10 = load ptr, ptr %4, align 8, !tbaa !3
  store ptr %10, ptr %6, align 8, !tbaa !25
  call void @llvm.lifetime.start.p0(i64 8, ptr %7) #4
  call void @llvm.lifetime.start.p0(i64 8, ptr %8) #4
  store i64 0, ptr %8, align 8, !tbaa !9
  %11 = load ptr, ptr %5, align 8, !tbaa !11
  %12 = call i32 @ossl_param_is_empty(ptr noundef %11)
  %13 = icmp ne i32 %12, 0
  br i1 %13, label %14, label %15

14:                                               ; preds = %2
  store i32 1, ptr %3, align 4
  store i32 1, ptr %9, align 4
  br label %34

15:                                               ; preds = %2
  %16 = load ptr, ptr %5, align 8, !tbaa !11
  %17 = call ptr @OSSL_PARAM_locate_const(ptr noundef %16, ptr noundef @.str.1)
  store ptr %17, ptr %7, align 8, !tbaa !11
  %18 = load ptr, ptr %7, align 8, !tbaa !11
  %19 = icmp ne ptr %18, null
  br i1 %19, label %20, label %33

20:                                               ; preds = %15
  %21 = load ptr, ptr %7, align 8, !tbaa !11
  %22 = call i32 @OSSL_PARAM_get_size_t(ptr noundef %21, ptr noundef %8)
  %23 = icmp ne i32 %22, 0
  br i1 %23, label %25, label %24

24:                                               ; preds = %20
  call void @ERR_new()
  call void @ERR_set_debug(ptr noundef @.str, i32 noundef 275, ptr noundef @__func__.aes_wrap_set_ctx_params)
  call void (i32, i32, ptr, ...) @ERR_set_error(i32 noundef 57, i32 noundef 103, ptr noundef null)
  store i32 0, ptr %3, align 4
  store i32 1, ptr %9, align 4
  br label %34

25:                                               ; preds = %20
  %26 = load ptr, ptr %6, align 8, !tbaa !25
  %27 = getelementptr inbounds nuw %struct.prov_cipher_ctx_st, ptr %26, i32 0, i32 6
  %28 = load i64, ptr %27, align 8, !tbaa !27
  %29 = load i64, ptr %8, align 8, !tbaa !9
  %30 = icmp ne i64 %28, %29
  br i1 %30, label %31, label %32

31:                                               ; preds = %25
  call void @ERR_new()
  call void @ERR_set_debug(ptr noundef @.str, i32 noundef 279, ptr noundef @__func__.aes_wrap_set_ctx_params)
  call void (i32, i32, ptr, ...) @ERR_set_error(i32 noundef 57, i32 noundef 105, ptr noundef null)
  store i32 0, ptr %3, align 4
  store i32 1, ptr %9, align 4
  br label %34

32:                                               ; preds = %25
  br label %33

33:                                               ; preds = %32, %15
  store i32 1, ptr %3, align 4
  store i32 1, ptr %9, align 4
  br label %34

34:                                               ; preds = %33, %31, %24, %14
  call void @llvm.lifetime.end.p0(i64 8, ptr %8) #4
  call void @llvm.lifetime.end.p0(i64 8, ptr %7) #4
  call void @llvm.lifetime.end.p0(i64 8, ptr %6) #4
  %35 = load i32, ptr %3, align 4
  ret i32 %35
}

; Function Attrs: nounwind uwtable
define internal i32 @aes_wrap_init(ptr noundef %0, ptr noundef %1, i64 noundef %2, ptr noundef %3, i64 noundef %4, ptr noundef %5, i32 noundef %6) #0 {
  %8 = alloca i32, align 4
  %9 = alloca ptr, align 8
  %10 = alloca ptr, align 8
  %11 = alloca i64, align 8
  %12 = alloca ptr, align 8
  %13 = alloca i64, align 8
  %14 = alloca ptr, align 8
  %15 = alloca i32, align 4
  %16 = alloca ptr, align 8
  %17 = alloca ptr, align 8
  %18 = alloca i32, align 4
  %19 = alloca i32, align 4
  store ptr %0, ptr %9, align 8, !tbaa !3
  store ptr %1, ptr %10, align 8, !tbaa !7
  store i64 %2, ptr %11, align 8, !tbaa !9
  store ptr %3, ptr %12, align 8, !tbaa !7
  store i64 %4, ptr %13, align 8, !tbaa !9
  store ptr %5, ptr %14, align 8, !tbaa !11
  store i32 %6, ptr %15, align 4, !tbaa !28
  call void @llvm.lifetime.start.p0(i64 8, ptr %16) #4
  %20 = load ptr, ptr %9, align 8, !tbaa !3
  store ptr %20, ptr %16, align 8, !tbaa !25
  call void @llvm.lifetime.start.p0(i64 8, ptr %17) #4
  %21 = load ptr, ptr %9, align 8, !tbaa !3
  store ptr %21, ptr %17, align 8, !tbaa !15
  %22 = call i32 @ossl_prov_is_running()
  %23 = icmp ne i32 %22, 0
  br i1 %23, label %25, label %24

24:                                               ; preds = %7
  store i32 0, ptr %8, align 4
  store i32 1, ptr %18, align 4
  br label %130

25:                                               ; preds = %7
  %26 = load i32, ptr %15, align 4, !tbaa !28
  %27 = load ptr, ptr %16, align 8, !tbaa !25
  %28 = getelementptr inbounds nuw %struct.prov_cipher_ctx_st, ptr %27, i32 0, i32 11
  %29 = trunc i32 %26 to i8
  %30 = load i8, ptr %28, align 4
  %31 = and i8 %29, 1
  %32 = shl i8 %31, 1
  %33 = and i8 %30, -3
  %34 = or i8 %33, %32
  store i8 %34, ptr %28, align 4
  %35 = load ptr, ptr %16, align 8, !tbaa !25
  %36 = getelementptr inbounds nuw %struct.prov_cipher_ctx_st, ptr %35, i32 0, i32 11
  %37 = load i8, ptr %36, align 4
  %38 = and i8 %37, 1
  %39 = zext i8 %38 to i32
  %40 = icmp ne i32 %39, 0
  br i1 %40, label %41, label %47

41:                                               ; preds = %25
  %42 = load i32, ptr %15, align 4, !tbaa !28
  %43 = icmp ne i32 %42, 0
  %44 = select i1 %43, ptr @CRYPTO_128_wrap_pad, ptr @CRYPTO_128_unwrap_pad
  %45 = load ptr, ptr %17, align 8, !tbaa !15
  %46 = getelementptr inbounds nuw %struct.prov_aes_wrap_ctx_st, ptr %45, i32 0, i32 2
  store ptr %44, ptr %46, align 8, !tbaa !30
  br label %53

47:                                               ; preds = %25
  %48 = load i32, ptr %15, align 4, !tbaa !28
  %49 = icmp ne i32 %48, 0
  %50 = select i1 %49, ptr @CRYPTO_128_wrap, ptr @CRYPTO_128_unwrap
  %51 = load ptr, ptr %17, align 8, !tbaa !15
  %52 = getelementptr inbounds nuw %struct.prov_aes_wrap_ctx_st, ptr %51, i32 0, i32 2
  store ptr %50, ptr %52, align 8, !tbaa !30
  br label %53

53:                                               ; preds = %47, %41
  %54 = load ptr, ptr %12, align 8, !tbaa !7
  %55 = icmp ne ptr %54, null
  br i1 %55, label %56, label %64

56:                                               ; preds = %53
  %57 = load ptr, ptr %16, align 8, !tbaa !25
  %58 = load ptr, ptr %12, align 8, !tbaa !7
  %59 = load i64, ptr %13, align 8, !tbaa !9
  %60 = call i32 @ossl_cipher_generic_initiv(ptr noundef %57, ptr noundef %58, i64 noundef %59)
  %61 = icmp ne i32 %60, 0
  br i1 %61, label %63, label %62

62:                                               ; preds = %56
  store i32 0, ptr %8, align 4
  store i32 1, ptr %18, align 4
  br label %130

63:                                               ; preds = %56
  br label %64

64:                                               ; preds = %63, %53
  %65 = load ptr, ptr %10, align 8, !tbaa !7
  %66 = icmp ne ptr %65, null
  br i1 %66, label %67, label %126

67:                                               ; preds = %64
  call void @llvm.lifetime.start.p0(i64 4, ptr %19) #4
  %68 = load i64, ptr %11, align 8, !tbaa !9
  %69 = load ptr, ptr %16, align 8, !tbaa !25
  %70 = getelementptr inbounds nuw %struct.prov_cipher_ctx_st, ptr %69, i32 0, i32 6
  %71 = load i64, ptr %70, align 8, !tbaa !27
  %72 = icmp ne i64 %68, %71
  br i1 %72, label %73, label %74

73:                                               ; preds = %67
  call void @ERR_new()
  call void @ERR_set_debug(ptr noundef @.str, i32 noundef 124, ptr noundef @__func__.aes_wrap_init)
  call void (i32, i32, ptr, ...) @ERR_set_error(i32 noundef 57, i32 noundef 105, ptr noundef null)
  store i32 0, ptr %8, align 4
  store i32 1, ptr %18, align 4
  br label %123

74:                                               ; preds = %67
  %75 = load ptr, ptr %16, align 8, !tbaa !25
  %76 = getelementptr inbounds nuw %struct.prov_cipher_ctx_st, ptr %75, i32 0, i32 11
  %77 = load i8, ptr %76, align 4
  %78 = lshr i8 %77, 6
  %79 = and i8 %78, 1
  %80 = zext i8 %79 to i32
  %81 = icmp eq i32 %80, 0
  br i1 %81, label %82, label %89

82:                                               ; preds = %74
  %83 = load ptr, ptr %16, align 8, !tbaa !25
  %84 = getelementptr inbounds nuw %struct.prov_cipher_ctx_st, ptr %83, i32 0, i32 11
  %85 = load i8, ptr %84, align 4
  %86 = lshr i8 %85, 1
  %87 = and i8 %86, 1
  %88 = zext i8 %87 to i32
  store i32 %88, ptr %19, align 4, !tbaa !28
  br label %99

89:                                               ; preds = %74
  %90 = load ptr, ptr %16, align 8, !tbaa !25
  %91 = getelementptr inbounds nuw %struct.prov_cipher_ctx_st, ptr %90, i32 0, i32 11
  %92 = load i8, ptr %91, align 4
  %93 = lshr i8 %92, 1
  %94 = and i8 %93, 1
  %95 = zext i8 %94 to i32
  %96 = icmp ne i32 %95, 0
  %97 = xor i1 %96, true
  %98 = zext i1 %97 to i32
  store i32 %98, ptr %19, align 4, !tbaa !28
  br label %99

99:                                               ; preds = %89, %82
  %100 = load i32, ptr %19, align 4, !tbaa !28
  %101 = icmp ne i32 %100, 0
  br i1 %101, label %102, label %112

102:                                              ; preds = %99
  %103 = load ptr, ptr %10, align 8, !tbaa !7
  %104 = load i64, ptr %11, align 8, !tbaa !9
  %105 = mul i64 %104, 8
  %106 = trunc i64 %105 to i32
  %107 = load ptr, ptr %17, align 8, !tbaa !15
  %108 = getelementptr inbounds nuw %struct.prov_aes_wrap_ctx_st, ptr %107, i32 0, i32 1
  %109 = call i32 @AES_set_encrypt_key(ptr noundef %103, i32 noundef %106, ptr noundef %108)
  %110 = load ptr, ptr %16, align 8, !tbaa !25
  %111 = getelementptr inbounds nuw %struct.prov_cipher_ctx_st, ptr %110, i32 0, i32 3
  store ptr @AES_encrypt, ptr %111, align 8, !tbaa !31
  br label %122

112:                                              ; preds = %99
  %113 = load ptr, ptr %10, align 8, !tbaa !7
  %114 = load i64, ptr %11, align 8, !tbaa !9
  %115 = mul i64 %114, 8
  %116 = trunc i64 %115 to i32
  %117 = load ptr, ptr %17, align 8, !tbaa !15
  %118 = getelementptr inbounds nuw %struct.prov_aes_wrap_ctx_st, ptr %117, i32 0, i32 1
  %119 = call i32 @AES_set_decrypt_key(ptr noundef %113, i32 noundef %116, ptr noundef %118)
  %120 = load ptr, ptr %16, align 8, !tbaa !25
  %121 = getelementptr inbounds nuw %struct.prov_cipher_ctx_st, ptr %120, i32 0, i32 3
  store ptr @AES_decrypt, ptr %121, align 8, !tbaa !31
  br label %122

122:                                              ; preds = %112, %102
  store i32 0, ptr %18, align 4
  br label %123

123:                                              ; preds = %122, %73
  call void @llvm.lifetime.end.p0(i64 4, ptr %19) #4
  %124 = load i32, ptr %18, align 4
  switch i32 %124, label %130 [
    i32 0, label %125
  ]

125:                                              ; preds = %123
  br label %126

126:                                              ; preds = %125, %64
  %127 = load ptr, ptr %16, align 8, !tbaa !25
  %128 = load ptr, ptr %14, align 8, !tbaa !11
  %129 = call i32 @aes_wrap_set_ctx_params(ptr noundef %127, ptr noundef %128)
  store i32 %129, ptr %8, align 4
  store i32 1, ptr %18, align 4
  br label %130

130:                                              ; preds = %126, %123, %62, %24
  call void @llvm.lifetime.end.p0(i64 8, ptr %17) #4
  call void @llvm.lifetime.end.p0(i64 8, ptr %16) #4
  %131 = load i32, ptr %8, align 4
  ret i32 %131
}