; Function Attrs: nounwind uwtable
define internal fastcc range(i32 0, 2) i32 @aes_wrap_init(ptr noundef %0, ptr noundef %1, i64 noundef %2, ptr noundef %3, i64 noundef %4, ptr noundef %5, i32 noundef range(i32 0, 2) %6) unnamed_addr #0 {
  %8 = alloca i64, align 8
  %9 = tail call i32 @ossl_prov_is_running() #3
  %.not = icmp eq i32 %9, 0
  br i1 %.not, label %50, label %10

10:                                               ; preds = %7
  %11 = getelementptr inbounds nuw i8, ptr %0, i64 108
  %12 = trunc nuw nsw i32 %6 to i8
  %13 = load i8, ptr %11, align 4
  %14 = shl nuw nsw i8 %12, 1
  %15 = and i8 %13, -3
  %16 = or disjoint i8 %15, %14
  store i8 %16, ptr %11, align 4
  %17 = and i8 %13, 1
  %.not36 = icmp eq i8 %17, 0
  %.not37 = icmp eq i32 %6, 0
  %18 = select i1 %.not37, ptr @CRYPTO_128_unwrap, ptr @CRYPTO_128_wrap
  %19 = select i1 %.not37, ptr @CRYPTO_128_unwrap_pad, ptr @CRYPTO_128_wrap_pad
  %.sink = select i1 %.not36, ptr %18, ptr %19
  %20 = getelementptr inbounds nuw i8, ptr %0, i64 440
  store ptr %.sink, ptr %20, align 8, !tbaa !14
  %.not39 = icmp eq ptr %3, null
  br i1 %.not39, label %23, label %21

21:                                               ; preds = %10
  %22 = tail call i32 @ossl_cipher_generic_initiv(ptr noundef nonnull %0, ptr noundef nonnull %3, i64 noundef %4) #3
  %.not40 = icmp eq i32 %22, 0
  br i1 %.not40, label %50, label %23

23:                                               ; preds = %21, %10
  %.not41 = icmp eq ptr %1, null
  br i1 %.not41, label %.thread, label %24

24:                                               ; preds = %23
  %25 = getelementptr inbounds nuw i8, ptr %0, i64 72
  %26 = load i64, ptr %25, align 8, !tbaa !22
  %.not42 = icmp eq i64 %2, %26
  br i1 %.not42, label %27, label %39

27:                                               ; preds = %24
  %28 = load i8, ptr %11, align 4
  %29 = and i8 %28, 64
  %30 = icmp eq i8 %29, 0
  %31 = and i8 %28, 2
  %.not43 = icmp ne i8 %31, 0
  %.0 = xor i1 %30, %.not43
  %.tr = trunc i64 %2 to i32
  %32 = shl i32 %.tr, 3
  %33 = getelementptr inbounds nuw i8, ptr %0, i64 192
  %34 = getelementptr inbounds nuw i8, ptr %0, i64 48
  br i1 %.0, label %37, label %35

35:                                               ; preds = %27
  %36 = tail call i32 @AES_set_encrypt_key(ptr noundef nonnull %1, i32 noundef %32, ptr noundef nonnull %33) #3
  br label %.thread.sink.split

37:                                               ; preds = %27
  %38 = tail call i32 @AES_set_decrypt_key(ptr noundef nonnull %1, i32 noundef %32, ptr noundef nonnull %33) #3
  br label %.thread.sink.split

39:                                               ; preds = %24
  tail call void @ERR_new() #3
  tail call void @ERR_set_debug(ptr noundef nonnull @.str, i32 noundef 124, ptr noundef nonnull @__func__.aes_wrap_init) #3
  tail call void (i32, i32, ptr, ...) @ERR_set_error(i32 noundef 57, i32 noundef 105, ptr noundef null) #3
  br label %50

.thread.sink.split:                               ; preds = %35, %37
  %AES_decrypt.sink = phi ptr [ @AES_decrypt, %37 ], [ @AES_encrypt, %35 ]
  store ptr %AES_decrypt.sink, ptr %34, align 8, !tbaa !16
  br label %.thread

.thread:                                          ; preds = %.thread.sink.split, %23
  call void @llvm.lifetime.start.p0(i64 8, ptr nonnull %8) #3
  store i64 0, ptr %8, align 8, !tbaa !13
  %40 = icmp eq ptr %5, null
  br i1 %40, label %aes_wrap_set_ctx_params.exit, label %ossl_param_is_empty.exit.i

ossl_param_is_empty.exit.i:                       ; preds = %.thread
  %41 = load ptr, ptr %5, align 8, !tbaa !20
  %.not.i = icmp eq ptr %41, null
  br i1 %.not.i, label %aes_wrap_set_ctx_params.exit, label %42

42:                                               ; preds = %ossl_param_is_empty.exit.i
  %43 = tail call ptr @OSSL_PARAM_locate_const(ptr noundef nonnull %5, ptr noundef nonnull @.str.1) #3
  %.not7.i = icmp eq ptr %43, null
  br i1 %.not7.i, label %aes_wrap_set_ctx_params.exit, label %44

44:                                               ; preds = %42
  %45 = call i32 @OSSL_PARAM_get_size_t(ptr noundef nonnull %43, ptr noundef nonnull %8) #3
  %.not8.i = icmp eq i32 %45, 0
  br i1 %.not8.i, label %ossl_param_is_empty.exit.thread.sink.split.i, label %46

46:                                               ; preds = %44
  %47 = getelementptr inbounds nuw i8, ptr %0, i64 72
  %48 = load i64, ptr %47, align 8, !tbaa !22
  %49 = load i64, ptr %8, align 8, !tbaa !13
  %.not9.i = icmp eq i64 %48, %49
  br i1 %.not9.i, label %aes_wrap_set_ctx_params.exit, label %ossl_param_is_empty.exit.thread.sink.split.i

ossl_param_is_empty.exit.thread.sink.split.i:     ; preds = %46, %44
  %.sink11.i = phi i32 [ 275, %44 ], [ 279, %46 ]
  %.sink.i = phi i32 [ 103, %44 ], [ 105, %46 ]
  call void @ERR_new() #3
  call void @ERR_set_debug(ptr noundef nonnull @.str, i32 noundef %.sink11.i, ptr noundef nonnull @__func__.aes_wrap_set_ctx_params) #3
  call void (i32, i32, ptr, ...) @ERR_set_error(i32 noundef 57, i32 noundef %.sink.i, ptr noundef null) #3
  br label %aes_wrap_set_ctx_params.exit

aes_wrap_set_ctx_params.exit:                     ; preds = %.thread, %ossl_param_is_empty.exit.i, %42, %46, %ossl_param_is_empty.exit.thread.sink.split.i
  %.0.i = phi i32 [ 1, %ossl_param_is_empty.exit.i ], [ 1, %46 ], [ 1, %42 ], [ 1, %.thread ], [ 0, %ossl_param_is_empty.exit.thread.sink.split.i ]
  call void @llvm.lifetime.end.p0(i64 8, ptr nonnull %8) #3
  br label %50

50:                                               ; preds = %39, %21, %7, %aes_wrap_set_ctx_params.exit
  %.032 = phi i32 [ %.0.i, %aes_wrap_set_ctx_params.exit ], [ 0, %39 ], [ 0, %7 ], [ 0, %21 ]
  ret i32 %.032
}